target datalayout = "e-m:e-p270:32:32-p271:32:32-p272:64:64-i64:64-i128:128-f80:128-n8:16:32:64-S128"
target triple = "x86_64-pc-linux-gnu"

%"class.ceres::internal::DenseCholesky" = type { ptr }
%"class.ceres::internal::CudaBuffer" = type { ptr, i64, ptr }
%"class.ceres::internal::CudaBuffer.196" = type { ptr, i64, ptr }
%"class.ceres::internal::ContextImpl" = type <{ %"class.ceres::Context", %"class.ceres::internal::ThreadPool", ptr, ptr, [2 x ptr], ptr, i8, [3 x i8], i32, %struct.cudaDeviceProp, i8, [3 x i8], i32, i32, [4 x i8] }>
%"class.ceres::Context" = type { ptr }
%"class.ceres::internal::ThreadPool" = type { %"class.ceres::internal::ConcurrentQueue", %"class.std::vector.200", %"class.std::mutex" }
%"class.ceres::internal::ConcurrentQueue" = type <{ %"class.std::mutex", %"class.std::condition_variable", %"class.std::queue", i8, [7 x i8] }>
%"class.std::condition_variable" = type { %"class.std::__condvar" }
%"class.std::__condvar" = type { %union.pthread_cond_t }
%union.pthread_cond_t = type { %struct.__pthread_cond_s }
%struct.__pthread_cond_s = type { %union.__atomic_wide_counter, %union.__atomic_wide_counter, [2 x i32], [2 x i32], i32, i32, [2 x i32] }
%union.__atomic_wide_counter = type { i64 }
%"class.std::queue" = type { %"class.std::deque" }
%"class.std::deque" = type { %"class.std::_Deque_base" }
%"class.std::_Deque_base" = type { %"struct.std::_Deque_base<std::function<void ()>, std::allocator<std::function<void ()>>>::_Deque_impl" }
%"struct.std::_Deque_base<std::function<void ()>, std::allocator<std::function<void ()>>>::_Deque_impl" = type { %"struct.std::_Deque_base<std::function<void ()>, std::allocator<std::function<void ()>>>::_Deque_impl_data" }
%"struct.std::_Deque_base<std::function<void ()>, std::allocator<std::function<void ()>>>::_Deque_impl_data" = type { ptr, i64, %"struct.std::_Deque_iterator", %"struct.std::_Deque_iterator" }
%"struct.std::_Deque_iterator" = type { ptr, ptr, ptr, ptr }
%"class.std::vector.200" = type { %"struct.std::_Vector_base.201" }
%"struct.std::_Vector_base.201" = type { %"struct.std::_Vector_base<std::thread, std::allocator<std::thread>>::_Vector_impl" }
%"struct.std::_Vector_base<std::thread, std::allocator<std::thread>>::_Vector_impl" = type { %"struct.std::_Vector_base<std::thread, std::allocator<std::thread>>::_Vector_impl_data" }
%"struct.std::_Vector_base<std::thread, std::allocator<std::thread>>::_Vector_impl_data" = type { ptr, ptr, ptr }
%"class.std::mutex" = type { %"class.std::__mutex_base" }
%"class.std::__mutex_base" = type { %union.pthread_mutex_t }
%union.pthread_mutex_t = type { %struct.__pthread_mutex_s }
%struct.__pthread_mutex_s = type { i32, i32, i32, i32, i32, i16, i16, %struct.__pthread_internal_list }
%struct.__pthread_internal_list = type { ptr, ptr }
%struct.cudaDeviceProp = type { [256 x i8], %struct.CUuuid_st, [8 x i8], i32, i64, i64, i32, i32, i64, i32, [3 x i32], [3 x i32], i32, i64, i32, i32, i64, i64, i32, i32, i32, i32, i32, i32, i32, i32, i32, [2 x i32], [2 x i32], [3 x i32], [2 x i32], [3 x i32], [3 x i32], i32, [2 x i32], [3 x i32], [2 x i32], i32, [2 x i32], [3 x i32], [2 x i32], [3 x i32], i32, [2 x i32], i64, i32, i32, i32, i32, i32, i32, i32, i32, i32, i32, i32, i32, i32, i32, i32, i32, i64, i32, i32, i32, i32, i32, i32, i32, i32, i32, i32, i32, i32, i64, i32, i32, i32, i32, i64 }
%struct.CUuuid_st = type { [16 x i8] }
%"class.ceres::internal::CUDADenseCholeskyMixedPrecision" = type { %"class.ceres::internal::DenseCholesky", ptr, i64, %"class.ceres::internal::CudaBuffer", %"class.ceres::internal::CudaBuffer", %"class.ceres::internal::CudaBuffer.205", %"class.ceres::internal::CudaBuffer.205", %"class.ceres::internal::CudaBuffer.196", %"class.ceres::internal::CudaBuffer", %"class.ceres::internal::CudaBuffer.205", %"class.ceres::internal::CudaBuffer.205", %"class.ceres::internal::CudaBuffer", i32, i32 }
%"class.ceres::internal::CudaBuffer.205" = type { ptr, i64, ptr }

@.str.5 = private unnamed_addr constant [9 x i8] c"Success.\00", align 1
@.str.23 = private unnamed_addr constant [52 x i8] c"Factorize did not complete successfully previously.\00", align 1

; Function Attrs: mustprogress nounwind uwtable
define linkonce_odr hidden noundef ptr @_ZN5ceres8internal10CudaBufferIfE4dataEv(ptr noundef nonnull align 8 dereferenceable(24) %0) #1 comdat align 2 {
  %2 = alloca ptr, align 8
  store ptr %0, ptr %2, align 8
  %3 = load ptr, ptr %2, align 8
  %4 = getelementptr inbounds %"class.ceres::internal::CudaBuffer.205", ptr %3, i32 0, i32 0
  %5 = load ptr, ptr %4, align 8
  ret ptr %5
}

; Function Attrs: mustprogress nounwind uwtable
define linkonce_odr hidden noundef ptr @_ZN5ceres8internal11ContextImpl13DefaultStreamEv(ptr noundef nonnull align 8 dereferenceable(1040) %0) #1 comdat align 2 {
  %2 = alloca ptr, align 8
  store ptr %0, ptr %2, align 8
  %3 = load ptr, ptr %2, align 8
  %4 = getelementptr inbounds %"class.ceres::internal::ContextImpl", ptr %3, i32 0, i32 4
  %5 = getelementptr inbounds [2 x ptr], ptr %4, i64 0, i64 0
  %6 = load ptr, ptr %5, align 8
  ret ptr %6
}

; Function Attrs: mustprogress nounwind uwtable
define linkonce_odr hidden noundef ptr @_ZN5ceres8internal10CudaBufferIdE4dataEv(ptr noundef nonnull align 8 dereferenceable(24) %0) #1 comdat align 2 {
  %2 = alloca ptr, align 8
  store ptr %0, ptr %2, align 8
  %3 = load ptr, ptr %2, align 8
  %4 = getelementptr inbounds %"class.ceres::internal::CudaBuffer", ptr %3, i32 0, i32 0
  %5 = load ptr, ptr %4, align 8
  ret ptr %5
}

; Function Attrs: mustprogress uwtable
define hidden noundef i32 @_ZN5ceres8internal31CUDADenseCholeskyMixedPrecision5SolveEPKdPdPNSt7__cxx1112basic_stringIcSt11char_traitsIcESaIcEEE(ptr noundef nonnull align 8 dereferenceable(248) %0, ptr noundef %1, ptr noundef %2, ptr noundef %3) unnamed_addr #2 align 2 {
  %5 = alloca i32, align 4
  %6 = alloca ptr, align 8
  %7 = alloca ptr, align 8
  %8 = alloca ptr, align 8
  %9 = alloca ptr, align 8
  %10 = alloca i32, align 4
  %11 = alloca i32, align 4
  %12 = alloca double, align 8
  %13 = alloca double, align 8
  store ptr %0, ptr %6, align 8
  store ptr %1, ptr %7, align 8
  store ptr %2, ptr %8, align 8
  store ptr %3, ptr %9, align 8
  %14 = load ptr, ptr %6, align 8
  %15 = getelementptr inbounds %"class.ceres::internal::CUDADenseCholeskyMixedPrecision", ptr %14, i32 0, i32 13
  %16 = load i32, ptr %15, align 4
  %17 = icmp ne i32 %16, 0
  br i1 %17, label %18, label %23

18:                                               ; preds = %4
  %19 = load ptr, ptr %9, align 8
  %20 = call noundef nonnull align 8 dereferenceable(32) ptr @_ZNSt7__cxx1112basic_stringIcSt11char_traitsIcESaIcEEaSEPKc(ptr noundef nonnull align 8 dereferenceable(32) %19, ptr noundef @.str.23)
  %21 = getelementptr inbounds %"class.ceres::internal::CUDADenseCholeskyMixedPrecision", ptr %14, i32 0, i32 13
  %22 = load i32, ptr %21, align 4
  store i32 %22, ptr %5, align 4
  br label %127

23:                                               ; preds = %4
  %24 = getelementptr inbounds %"class.ceres::internal::CUDADenseCholeskyMixedPrecision", ptr %14, i32 0, i32 4
  %25 = getelementptr inbounds %"class.ceres::internal::CUDADenseCholeskyMixedPrecision", ptr %14, i32 0, i32 2
  %26 = load i64, ptr %25, align 8
  call void @_ZN5ceres8internal10CudaBufferIdE7ReserveEm(ptr noundef nonnull align 8 dereferenceable(24) %24, i64 noundef %26)
  %27 = getelementptr inbounds %"class.ceres::internal::CUDADenseCholeskyMixedPrecision", ptr %14, i32 0, i32 8
  %28 = getelementptr inbounds %"class.ceres::internal::CUDADenseCholeskyMixedPrecision", ptr %14, i32 0, i32 2
  %29 = load i64, ptr %28, align 8
  call void @_ZN5ceres8internal10CudaBufferIdE7ReserveEm(ptr noundef nonnull align 8 dereferenceable(24) %27, i64 noundef %29)
  %30 = getelementptr inbounds %"class.ceres::internal::CUDADenseCholeskyMixedPrecision", ptr %14, i32 0, i32 9
  %31 = getelementptr inbounds %"class.ceres::internal::CUDADenseCholeskyMixedPrecision", ptr %14, i32 0, i32 2
  %32 = load i64, ptr %31, align 8
  call void @_ZN5ceres8internal10CudaBufferIfE7ReserveEm(ptr noundef nonnull align 8 dereferenceable(24) %30, i64 noundef %32)
  %33 = getelementptr inbounds %"class.ceres::internal::CUDADenseCholeskyMixedPrecision", ptr %14, i32 0, i32 10
  %34 = getelementptr inbounds %"class.ceres::internal::CUDADenseCholeskyMixedPrecision", ptr %14, i32 0, i32 2
  %35 = load i64, ptr %34, align 8
  call void @_ZN5ceres8internal10CudaBufferIfE7ReserveEm(ptr noundef nonnull align 8 dereferenceable(24) %33, i64 noundef %35)
  %36 = getelementptr inbounds %"class.ceres::internal::CUDADenseCholeskyMixedPrecision", ptr %14, i32 0, i32 11
  %37 = getelementptr inbounds %"class.ceres::internal::CUDADenseCholeskyMixedPrecision", ptr %14, i32 0, i32 2
  %38 = load i64, ptr %37, align 8
  call void @_ZN5ceres8internal10CudaBufferIdE7ReserveEm(ptr noundef nonnull align 8 dereferenceable(24) %36, i64 noundef %38)
  %39 = getelementptr inbounds %"class.ceres::internal::CUDADenseCholeskyMixedPrecision", ptr %14, i32 0, i32 8
  %40 = call noundef ptr @_ZN5ceres8internal10CudaBufferIdE4dataEv(ptr noundef nonnull align 8 dereferenceable(24) %39)
  %41 = getelementptr inbounds %"class.ceres::internal::CUDADenseCholeskyMixedPrecision", ptr %14, i32 0, i32 2
  %42 = load i64, ptr %41, align 8
  %43 = trunc i64 %42 to i32
  %44 = getelementptr inbounds %"class.ceres::internal::CUDADenseCholeskyMixedPrecision", ptr %14, i32 0, i32 1
  %45 = load ptr, ptr %44, align 8
  %46 = call noundef ptr @_ZN5ceres8internal11ContextImpl13DefaultStreamEv(ptr noundef nonnull align 8 dereferenceable(1040) %45)
  call void @_ZN5ceres8internal15CudaSetZeroFP64EPdiP11CUstream_st(ptr noundef %40, i32 noundef %43, ptr noundef %46)
  %47 = getelementptr inbounds %"class.ceres::internal::CUDADenseCholeskyMixedPrecision", ptr %14, i32 0, i32 4
  %48 = load ptr, ptr %7, align 8
  %49 = getelementptr inbounds %"class.ceres::internal::CUDADenseCholeskyMixedPrecision", ptr %14, i32 0, i32 2
  %50 = load i64, ptr %49, align 8
  call void @_ZN5ceres8internal10CudaBufferIdE11CopyFromCpuEPKdm(ptr noundef nonnull align 8 dereferenceable(24) %47, ptr noundef %48, i64 noundef %50)
  %51 = getelementptr inbounds %"class.ceres::internal::CUDADenseCholeskyMixedPrecision", ptr %14, i32 0, i32 11
  %52 = getelementptr inbounds %"class.ceres::internal::CUDADenseCholeskyMixedPrecision", ptr %14, i32 0, i32 4
  %53 = call noundef ptr @_ZN5ceres8internal10CudaBufferIdE4dataEv(ptr noundef nonnull align 8 dereferenceable(24) %52)
  %54 = getelementptr inbounds %"class.ceres::internal::CUDADenseCholeskyMixedPrecision", ptr %14, i32 0, i32 2
  %55 = load i64, ptr %54, align 8
  call void @_ZN5ceres8internal10CudaBufferIdE16CopyFromGPUArrayEPKdm(ptr noundef nonnull align 8 dereferenceable(24) %51, ptr noundef %53, i64 noundef %55)
  store i32 0, ptr %10, align 4
  br label %56

56:                                               ; preds = %117, %23
  %57 = load i32, ptr %10, align 4
  %58 = getelementptr inbounds %"class.ceres::internal::CUDADenseCholeskyMixedPrecision", ptr %14, i32 0, i32 12
  %59 = load i32, ptr %58, align 8
  %60 = icmp sle i32 %57, %59
  br i1 %60, label %61, label %120

61:                                               ; preds = %56
  %62 = getelementptr inbounds %"class.ceres::internal::CUDADenseCholeskyMixedPrecision", ptr %14, i32 0, i32 11
  %63 = call noundef ptr @_ZN5ceres8internal10CudaBufferIdE4dataEv(ptr noundef nonnull align 8 dereferenceable(24) %62)
  %64 = getelementptr inbounds %"class.ceres::internal::CUDADenseCholeskyMixedPrecision", ptr %14, i32 0, i32 10
  %65 = call noundef ptr @_ZN5ceres8internal10CudaBufferIfE4dataEv(ptr noundef nonnull align 8 dereferenceable(24) %64)
  %66 = getelementptr inbounds %"class.ceres::internal::CUDADenseCholeskyMixedPrecision", ptr %14, i32 0, i32 2
  %67 = load i64, ptr %66, align 8
  %68 = trunc i64 %67 to i32
  %69 = getelementptr inbounds %"class.ceres::internal::CUDADenseCholeskyMixedPrecision", ptr %14, i32 0, i32 1
  %70 = load ptr, ptr %69, align 8
  %71 = call noundef ptr @_ZN5ceres8internal11ContextImpl13DefaultStreamEv(ptr noundef nonnull align 8 dereferenceable(1040) %70)
  call void @_ZN5ceres8internal14CudaFP64ToFP32EPKdPfiP11CUstream_st(ptr noundef %63, ptr noundef %65, i32 noundef %68, ptr noundef %71)
  %72 = load ptr, ptr %9, align 8
  %73 = call noundef i32 @_ZN5ceres8internal31CUDADenseCholeskyMixedPrecision17CudaCholeskySolveEPNSt7__cxx1112basic_stringIcSt11char_traitsIcESaIcEEE(ptr noundef nonnull align 8 dereferenceable(248) %14, ptr noundef %72)
  store i32 %73, ptr %11, align 4
  %74 = load i32, ptr %11, align 4
  %75 = icmp ne i32 %74, 0
  br i1 %75, label %76, label %78

76:                                               ; preds = %61
  %77 = load i32, ptr %11, align 4
  store i32 %77, ptr %5, align 4
  br label %127

78:                                               ; preds = %61
  %79 = getelementptr inbounds %"class.ceres::internal::CUDADenseCholeskyMixedPrecision", ptr %14, i32 0, i32 8
  %80 = call noundef ptr @_ZN5ceres8internal10CudaBufferIdE4dataEv(ptr noundef nonnull align 8 dereferenceable(24) %79)
  %81 = getelementptr inbounds %"class.ceres::internal::CUDADenseCholeskyMixedPrecision", ptr %14, i32 0, i32 9
  %82 = call noundef ptr @_ZN5ceres8internal10CudaBufferIfE4dataEv(ptr noundef nonnull align 8 dereferenceable(24) %81)
  %83 = getelementptr inbounds %"class.ceres::internal::CUDADenseCholeskyMixedPrecision", ptr %14, i32 0, i32 2
  %84 = load i64, ptr %83, align 8
  %85 = trunc i64 %84 to i32
  %86 = getelementptr inbounds %"class.ceres::internal::CUDADenseCholeskyMixedPrecision", ptr %14, i32 0, i32 1
  %87 = load ptr, ptr %86, align 8
  %88 = call noundef ptr @_ZN5ceres8internal11ContextImpl13DefaultStreamEv(ptr noundef nonnull align 8 dereferenceable(1040) %87)
  call void @_ZN5ceres8internal9CudaDsxpyEPdPfiP11CUstream_st(ptr noundef %80, ptr noundef %82, i32 noundef %85, ptr noundef %88)
  %89 = load i32, ptr %10, align 4
  %90 = getelementptr inbounds %"class.ceres::internal::CUDADenseCholeskyMixedPrecision", ptr %14, i32 0, i32 12
  %91 = load i32, ptr %90, align 8
  %92 = icmp slt i32 %89, %91
  br i1 %92, label %93, label %116

93:                                               ; preds = %78
  %94 = getelementptr inbounds %"class.ceres::internal::CUDADenseCholeskyMixedPrecision", ptr %14, i32 0, i32 11
  %95 = getelementptr inbounds %"class.ceres::internal::CUDADenseCholeskyMixedPrecision", ptr %14, i32 0, i32 4
  %96 = call noundef ptr @_ZN5ceres8internal10CudaBufferIdE4dataEv(ptr noundef nonnull align 8 dereferenceable(24) %95)
  %97 = getelementptr inbounds %"class.ceres::internal::CUDADenseCholeskyMixedPrecision", ptr %14, i32 0, i32 2
  %98 = load i64, ptr %97, align 8
  call void @_ZN5ceres8internal10CudaBufferIdE16CopyFromGPUArrayEPKdm(ptr noundef nonnull align 8 dereferenceable(24) %94, ptr noundef %96, i64 noundef %98)
  store double -1.000000e+00, ptr %12, align 8
  store double 1.000000e+00, ptr %13, align 8
  %99 = getelementptr inbounds %"class.ceres::internal::CUDADenseCholeskyMixedPrecision", ptr %14, i32 0, i32 1
  %100 = load ptr, ptr %99, align 8
  %101 = getelementptr inbounds %"class.ceres::internal::ContextImpl", ptr %100, i32 0, i32 3
  %102 = load ptr, ptr %101, align 8
  %103 = getelementptr inbounds %"class.ceres::internal::CUDADenseCholeskyMixedPrecision", ptr %14, i32 0, i32 2
  %104 = load i64, ptr %103, align 8
  %105 = trunc i64 %104 to i32
  %106 = getelementptr inbounds %"class.ceres::internal::CUDADenseCholeskyMixedPrecision", ptr %14, i32 0, i32 3
  %107 = call noundef ptr @_ZN5ceres8internal10CudaBufferIdE4dataEv(ptr noundef nonnull align 8 dereferenceable(24) %106)
  %108 = getelementptr inbounds %"class.ceres::internal::CUDADenseCholeskyMixedPrecision", ptr %14, i32 0, i32 2
  %109 = load i64, ptr %108, align 8
  %110 = trunc i64 %109 to i32
  %111 = getelementptr inbounds %"class.ceres::internal::CUDADenseCholeskyMixedPrecision", ptr %14, i32 0, i32 8
  %112 = call noundef ptr @_ZN5ceres8internal10CudaBufferIdE4dataEv(ptr noundef nonnull align 8 dereferenceable(24) %111)
  %113 = getelementptr inbounds %"class.ceres::internal::CUDADenseCholeskyMixedPrecision", ptr %14, i32 0, i32 11
  %114 = call noundef ptr @_ZN5ceres8internal10CudaBufferIdE4dataEv(ptr noundef nonnull align 8 dereferenceable(24) %113)
  %115 = call i32 @cublasDsymv_v2(ptr noundef %102, i32 noundef 0, i32 noundef %105, ptr noundef %12, ptr noundef %107, i32 noundef %110, ptr noundef %112, i32 noundef 1, ptr noundef %13, ptr noundef %114, i32 noundef 1)
  br label %116

116:                                              ; preds = %93, %78
  br label %117

117:                                              ; preds = %116
  %118 = load i32, ptr %10, align 4
  %119 = add nsw i32 %118, 1
  store i32 %119, ptr %10, align 4
  br label %56, !llvm.loop !4

120:                                              ; preds = %56
  %121 = getelementptr inbounds %"class.ceres::internal::CUDADenseCholeskyMixedPrecision", ptr %14, i32 0, i32 8
  %122 = load ptr, ptr %8, align 8
  %123 = getelementptr inbounds %"class.ceres::internal::CUDADenseCholeskyMixedPrecision", ptr %14, i32 0, i32 2
  %124 = load i64, ptr %123, align 8
  call void @_ZNK5ceres8internal10CudaBufferIdE9CopyToCpuEPdm(ptr noundef nonnull align 8 dereferenceable(24) %121, ptr noundef %122, i64 noundef %124)
  %125 = load ptr, ptr %9, align 8
  %126 = call noundef nonnull align 8 dereferenceable(32) ptr @_ZNSt7__cxx1112basic_stringIcSt11char_traitsIcESaIcEEaSEPKc(ptr noundef nonnull align 8 dereferenceable(32) %125, ptr noundef @.str.5)
  store i32 0, ptr %5, align 4
  br label %127

127:                                              ; preds = %120, %76, %18
  %128 = load i32, ptr %5, align 4
  ret i32 %128
}