; Function Attrs: mustprogress uwtable
define hidden noundef i32 @_ZN5ceres8internal31CUDADenseCholeskyMixedPrecision5SolveEPKdPdPNSt7__cxx1112basic_stringIcSt11char_traitsIcESaIcEEE(ptr noundef nonnull align 8 dereferenceable(248) %0, ptr noundef %1, ptr noundef %2, ptr noundef %3) unnamed_addr #3 align 2 {
  %5 = alloca double, align 8
  %6 = alloca double, align 8
  %7 = getelementptr inbounds i8, ptr %0, i64 244
  %8 = load i32, ptr %7, align 4
  %.not = icmp eq i32 %8, 0
  br i1 %.not, label %12, label %9

9:                                                ; preds = %4
  %10 = tail call noundef nonnull align 8 dereferenceable(32) ptr @_ZNSt7__cxx1112basic_stringIcSt11char_traitsIcESaIcEEaSEPKc(ptr noundef nonnull align 8 dereferenceable(32) %3, ptr noundef nonnull @.str.23)
  %11 = load i32, ptr %7, align 4
  br label %.loopexit

12:                                               ; preds = %4
  %13 = getelementptr inbounds i8, ptr %0, i64 48
  %14 = getelementptr inbounds i8, ptr %0, i64 16
  %15 = load i64, ptr %14, align 8
  tail call void @_ZN5ceres8internal10CudaBufferIdE7ReserveEm(ptr noundef nonnull align 8 dereferenceable(24) %13, i64 noundef %15)
  %16 = getelementptr inbounds i8, ptr %0, i64 144
  %17 = load i64, ptr %14, align 8
  tail call void @_ZN5ceres8internal10CudaBufferIdE7ReserveEm(ptr noundef nonnull align 8 dereferenceable(24) %16, i64 noundef %17)
  %18 = getelementptr inbounds i8, ptr %0, i64 168
  %19 = load i64, ptr %14, align 8
  tail call void @_ZN5ceres8internal10CudaBufferIfE7ReserveEm(ptr noundef nonnull align 8 dereferenceable(24) %18, i64 noundef %19)
  %20 = getelementptr inbounds i8, ptr %0, i64 192
  %21 = load i64, ptr %14, align 8
  tail call void @_ZN5ceres8internal10CudaBufferIfE7ReserveEm(ptr noundef nonnull align 8 dereferenceable(24) %20, i64 noundef %21)
  %22 = getelementptr inbounds i8, ptr %0, i64 216
  %23 = load i64, ptr %14, align 8
  tail call void @_ZN5ceres8internal10CudaBufferIdE7ReserveEm(ptr noundef nonnull align 8 dereferenceable(24) %22, i64 noundef %23)
  %24 = load ptr, ptr %16, align 8
  %25 = load i64, ptr %14, align 8
  %26 = trunc i64 %25 to i32
  %27 = getelementptr inbounds i8, ptr %0, i64 8
  %28 = load ptr, ptr %27, align 8
  %29 = getelementptr inbounds i8, ptr %28, i64 264
  %30 = load ptr, ptr %29, align 8
  tail call void @_ZN5ceres8internal15CudaSetZeroFP64EPdiP11CUstream_st(ptr noundef %24, i32 noundef %26, ptr noundef %30)
  %31 = load i64, ptr %14, align 8
  tail call void @_ZN5ceres8internal10CudaBufferIdE11CopyFromCpuEPKdm(ptr noundef nonnull align 8 dereferenceable(24) %13, ptr noundef %1, i64 noundef %31)
  %32 = load ptr, ptr %13, align 8
  %33 = load i64, ptr %14, align 8
  tail call void @_ZN5ceres8internal10CudaBufferIdE16CopyFromGPUArrayEPKdm(ptr noundef nonnull align 8 dereferenceable(24) %22, ptr noundef %32, i64 noundef %33)
  %34 = getelementptr inbounds i8, ptr %0, i64 240
  %35 = load i32, ptr %34, align 8
  %.not1315 = icmp slt i32 %35, 0
  br i1 %.not1315, label %._crit_edge, label %.lr.ph

.lr.ph:                                           ; preds = %12
  %36 = getelementptr inbounds i8, ptr %0, i64 24
  br label %37

37:                                               ; preds = %.lr.ph, %68
  %.01116 = phi i32 [ 0, %.lr.ph ], [ %70, %68 ]
  %38 = load ptr, ptr %22, align 8
  %39 = load ptr, ptr %20, align 8
  %40 = load i64, ptr %14, align 8
  %41 = trunc i64 %40 to i32
  %42 = load ptr, ptr %27, align 8
  %43 = getelementptr inbounds i8, ptr %42, i64 264
  %44 = load ptr, ptr %43, align 8
  call void @_ZN5ceres8internal14CudaFP64ToFP32EPKdPfiP11CUstream_st(ptr noundef %38, ptr noundef %39, i32 noundef %41, ptr noundef %44)
  %45 = call noundef i32 @_ZN5ceres8internal31CUDADenseCholeskyMixedPrecision17CudaCholeskySolveEPNSt7__cxx1112basic_stringIcSt11char_traitsIcESaIcEEE(ptr noundef nonnull align 8 dereferenceable(248) %0, ptr noundef %3), !range !41
  %.not14 = icmp eq i32 %45, 0
  br i1 %.not14, label %46, label %.loopexit

46:                                               ; preds = %37
  %47 = load ptr, ptr %16, align 8
  %48 = load ptr, ptr %18, align 8
  %49 = load i64, ptr %14, align 8
  %50 = trunc i64 %49 to i32
  %51 = load ptr, ptr %27, align 8
  %52 = getelementptr inbounds i8, ptr %51, i64 264
  %53 = load ptr, ptr %52, align 8
  call void @_ZN5ceres8internal9CudaDsxpyEPdPfiP11CUstream_st(ptr noundef %47, ptr noundef %48, i32 noundef %50, ptr noundef %53)
  %54 = load i32, ptr %34, align 8
  %55 = icmp slt i32 %.01116, %54
  br i1 %55, label %56, label %68

56:                                               ; preds = %46
  %57 = load ptr, ptr %13, align 8
  %58 = load i64, ptr %14, align 8
  call void @_ZN5ceres8internal10CudaBufferIdE16CopyFromGPUArrayEPKdm(ptr noundef nonnull align 8 dereferenceable(24) %22, ptr noundef %57, i64 noundef %58)
  store double -1.000000e+00, ptr %5, align 8
  store double 1.000000e+00, ptr %6, align 8
  %59 = load ptr, ptr %27, align 8
  %60 = getelementptr inbounds i8, ptr %59, i64 256
  %61 = load ptr, ptr %60, align 8
  %62 = load i64, ptr %14, align 8
  %63 = trunc i64 %62 to i32
  %64 = load ptr, ptr %36, align 8
  %65 = load ptr, ptr %16, align 8
  %66 = load ptr, ptr %22, align 8
  %67 = call i32 @cublasDsymv_v2(ptr noundef %61, i32 noundef 0, i32 noundef %63, ptr noundef nonnull %5, ptr noundef %64, i32 noundef %63, ptr noundef %65, i32 noundef 1, ptr noundef nonnull %6, ptr noundef %66, i32 noundef 1)
  %.pre = load i32, ptr %34, align 8
  br label %68

68:                                               ; preds = %46, %56
  %69 = phi i32 [ %54, %46 ], [ %.pre, %56 ]
  %70 = add nuw nsw i32 %.01116, 1
  %.not13.not = icmp slt i32 %.01116, %69
  br i1 %.not13.not, label %37, label %._crit_edge, !llvm.loop !42

._crit_edge:                                      ; preds = %68, %12
  %71 = load i64, ptr %14, align 8
  call void @_ZNK5ceres8internal10CudaBufferIdE9CopyToCpuEPdm(ptr noundef nonnull align 8 dereferenceable(24) %16, ptr noundef %2, i64 noundef %71)
  %72 = call noundef nonnull align 8 dereferenceable(32) ptr @_ZNSt7__cxx1112basic_stringIcSt11char_traitsIcESaIcEEaSEPKc(ptr noundef nonnull align 8 dereferenceable(32) %3, ptr noundef nonnull @.str.5)
  br label %.loopexit

.loopexit:                                        ; preds = %37, %._crit_edge, %9
  %.0 = phi i32 [ %11, %9 ], [ 0, %._crit_edge ], [ %45, %37 ]
  ret i32 %.0
}